target datalayout = "e-m:e-p270:32:32-p271:32:32-p272:64:64-i64:64-i128:128-f80:128-n8:16:32:64-S128"
target triple = "x86_64-pc-linux-gnu"

; Function Attrs: nounwind uwtable
define hidden void @KeccakP1600_ExtractAndAddBytesInLane(ptr noundef %0, i32 noundef %1, ptr noundef %2, ptr noundef %3, i32 noundef %4, i32 noundef %5) #0 {
  %7 = alloca ptr, align 8
  %8 = alloca i32, align 4
  %9 = alloca ptr, align 8
  %10 = alloca ptr, align 8
  %11 = alloca i32, align 4
  %12 = alloca i32, align 4
  %13 = alloca i64, align 8
  %14 = alloca i32, align 4
  %15 = alloca [1 x i64], align 8
  store ptr %0, ptr %7, align 8, !tbaa !4
  store i32 %1, ptr %8, align 4, !tbaa !10
  store ptr %2, ptr %9, align 8, !tbaa !12
  store ptr %3, ptr %10, align 8, !tbaa !12
  store i32 %4, ptr %11, align 4, !tbaa !10
  store i32 %5, ptr %12, align 4, !tbaa !10
  call void @llvm.lifetime.start.p0(i64 8, ptr %13) #4
  %16 = load ptr, ptr %7, align 8, !tbaa !4
  %17 = load i32, ptr %8, align 4, !tbaa !10
  %18 = zext i32 %17 to i64
  %19 = getelementptr inbounds nuw i64, ptr %16, i64 %18
  %20 = load i64, ptr %19, align 8, !tbaa !8
  store i64 %20, ptr %13, align 8, !tbaa !8
  %21 = load i32, ptr %8, align 4, !tbaa !10
  %22 = icmp eq i32 %21, 1
  br i1 %22, label %38, label %23

23:                                               ; preds = %6
  %24 = load i32, ptr %8, align 4, !tbaa !10
  %25 = icmp eq i32 %24, 2
  br i1 %25, label %38, label %26

26:                                               ; preds = %23
  %27 = load i32, ptr %8, align 4, !tbaa !10
  %28 = icmp eq i32 %27, 8
  br i1 %28, label %38, label %29

29:                                               ; preds = %26
  %30 = load i32, ptr %8, align 4, !tbaa !10
  %31 = icmp eq i32 %30, 12
  br i1 %31, label %38, label %32

32:                                               ; preds = %29
  %33 = load i32, ptr %8, align 4, !tbaa !10
  %34 = icmp eq i32 %33, 17
  br i1 %34, label %38, label %35

35:                                               ; preds = %32
  %36 = load i32, ptr %8, align 4, !tbaa !10
  %37 = icmp eq i32 %36, 20
  br i1 %37, label %38, label %41

38:                                               ; preds = %35, %32, %29, %26, %23, %6
  %39 = load i64, ptr %13, align 8, !tbaa !8
  %40 = xor i64 %39, -1
  store i64 %40, ptr %13, align 8, !tbaa !8
  br label %41

41:                                               ; preds = %38, %35
  call void @llvm.lifetime.start.p0(i64 4, ptr %14) #4
  call void @llvm.lifetime.start.p0(i64 8, ptr %15) #4
  %42 = load i64, ptr %13, align 8, !tbaa !8
  %43 = getelementptr inbounds [1 x i64], ptr %15, i64 0, i64 0
  store i64 %42, ptr %43, align 8, !tbaa !8
  store i32 0, ptr %14, align 4, !tbaa !10
  br label %44

44:                                               ; preds = %69, %41
  %45 = load i32, ptr %14, align 4, !tbaa !10
  %46 = load i32, ptr %12, align 4, !tbaa !10
  %47 = icmp ult i32 %45, %46
  br i1 %47, label %48, label %72

48:                                               ; preds = %44
  %49 = load ptr, ptr %9, align 8, !tbaa !12
  %50 = load i32, ptr %14, align 4, !tbaa !10
  %51 = zext i32 %50 to i64
  %52 = getelementptr inbounds nuw i8, ptr %49, i64 %51
  %53 = load i8, ptr %52, align 1, !tbaa !14
  %54 = zext i8 %53 to i32
  %55 = getelementptr inbounds [1 x i64], ptr %15, i64 0, i64 0
  %56 = load i32, ptr %11, align 4, !tbaa !10
  %57 = load i32, ptr %14, align 4, !tbaa !10
  %58 = add i32 %56, %57
  %59 = zext i32 %58 to i64
  %60 = getelementptr inbounds nuw i8, ptr %55, i64 %59
  %61 = load i8, ptr %60, align 1, !tbaa !14
  %62 = zext i8 %61 to i32
  %63 = xor i32 %54, %62
  %64 = trunc i32 %63 to i8
  %65 = load ptr, ptr %10, align 8, !tbaa !12
  %66 = load i32, ptr %14, align 4, !tbaa !10
  %67 = zext i32 %66 to i64
  %68 = getelementptr inbounds nuw i8, ptr %65, i64 %67
  store i8 %64, ptr %68, align 1, !tbaa !14
  br label %69

69:                                               ; preds = %48
  %70 = load i32, ptr %14, align 4, !tbaa !10
  %71 = add i32 %70, 1
  store i32 %71, ptr %14, align 4, !tbaa !10
  br label %44

72:                                               ; preds = %44
  call void @llvm.lifetime.end.p0(i64 8, ptr %15) #4
  call void @llvm.lifetime.end.p0(i64 4, ptr %14) #4
  call void @llvm.lifetime.end.p0(i64 8, ptr %13) #4
  ret void
}

; Function Attrs: nounwind uwtable
define hidden void @KeccakP1600_ExtractAndAddLanes(ptr noundef %0, ptr noundef %1, ptr noundef %2, i32 noundef %3) #0 {
  %5 = alloca ptr, align 8
  %6 = alloca ptr, align 8
  %7 = alloca ptr, align 8
  %8 = alloca i32, align 4
  %9 = alloca i32, align 4
  store ptr %0, ptr %5, align 8, !tbaa !4
  store ptr %1, ptr %6, align 8, !tbaa !12
  store ptr %2, ptr %7, align 8, !tbaa !12
  store i32 %3, ptr %8, align 4, !tbaa !10
  call void @llvm.lifetime.start.p0(i64 4, ptr %9) #4
  store i32 0, ptr %9, align 4, !tbaa !10
  br label %10

10:                                               ; preds = %30, %4
  %11 = load i32, ptr %9, align 4, !tbaa !10
  %12 = load i32, ptr %8, align 4, !tbaa !10
  %13 = icmp ult i32 %11, %12
  br i1 %13, label %14, label %33

14:                                               ; preds = %10
  %15 = load ptr, ptr %6, align 8, !tbaa !12
  %16 = load i32, ptr %9, align 4, !tbaa !10
  %17 = zext i32 %16 to i64
  %18 = getelementptr inbounds nuw i64, ptr %15, i64 %17
  %19 = load i64, ptr %18, align 8, !tbaa !8
  %20 = load ptr, ptr %5, align 8, !tbaa !4
  %21 = load i32, ptr %9, align 4, !tbaa !10
  %22 = zext i32 %21 to i64
  %23 = getelementptr inbounds nuw i64, ptr %20, i64 %22
  %24 = load i64, ptr %23, align 8, !tbaa !8
  %25 = xor i64 %19, %24
  %26 = load ptr, ptr %7, align 8, !tbaa !12
  %27 = load i32, ptr %9, align 4, !tbaa !10
  %28 = zext i32 %27 to i64
  %29 = getelementptr inbounds nuw i64, ptr %26, i64 %28
  store i64 %25, ptr %29, align 8, !tbaa !8
  br label %30

30:                                               ; preds = %14
  %31 = load i32, ptr %9, align 4, !tbaa !10
  %32 = add i32 %31, 1
  store i32 %32, ptr %9, align 4, !tbaa !10
  br label %10

33:                                               ; preds = %10
  %34 = load i32, ptr %8, align 4, !tbaa !10
  %35 = icmp ugt i32 %34, 1
  br i1 %35, label %36, label %93

36:                                               ; preds = %33
  %37 = load ptr, ptr %7, align 8, !tbaa !12
  %38 = getelementptr inbounds i64, ptr %37, i64 1
  %39 = load i64, ptr %38, align 8, !tbaa !8
  %40 = xor i64 %39, -1
  %41 = load ptr, ptr %7, align 8, !tbaa !12
  %42 = getelementptr inbounds i64, ptr %41, i64 1
  store i64 %40, ptr %42, align 8, !tbaa !8
  %43 = load i32, ptr %8, align 4, !tbaa !10
  %44 = icmp ugt i32 %43, 2
  br i1 %44, label %45, label %92

45:                                               ; preds = %36
  %46 = load ptr, ptr %7, align 8, !tbaa !12
  %47 = getelementptr inbounds i64, ptr %46, i64 2
  %48 = load i64, ptr %47, align 8, !tbaa !8
  %49 = xor i64 %48, -1
  %50 = load ptr, ptr %7, align 8, !tbaa !12
  %51 = getelementptr inbounds i64, ptr %50, i64 2
  store i64 %49, ptr %51, align 8, !tbaa !8
  %52 = load i32, ptr %8, align 4, !tbaa !10
  %53 = icmp ugt i32 %52, 8
  br i1 %53, label %54, label %91

54:                                               ; preds = %45
  %55 = load ptr, ptr %7, align 8, !tbaa !12
  %56 = getelementptr inbounds i64, ptr %55, i64 8
  %57 = load i64, ptr %56, align 8, !tbaa !8
  %58 = xor i64 %57, -1
  %59 = load ptr, ptr %7, align 8, !tbaa !12
  %60 = getelementptr inbounds i64, ptr %59, i64 8
  store i64 %58, ptr %60, align 8, !tbaa !8
  %61 = load i32, ptr %8, align 4, !tbaa !10
  %62 = icmp ugt i32 %61, 12
  br i1 %62, label %63, label %90

63:                                               ; preds = %54
  %64 = load ptr, ptr %7, align 8, !tbaa !12
  %65 = getelementptr inbounds i64, ptr %64, i64 12
  %66 = load i64, ptr %65, align 8, !tbaa !8
  %67 = xor i64 %66, -1
  %68 = load ptr, ptr %7, align 8, !tbaa !12
  %69 = getelementptr inbounds i64, ptr %68, i64 12
  store i64 %67, ptr %69, align 8, !tbaa !8
  %70 = load i32, ptr %8, align 4, !tbaa !10
  %71 = icmp ugt i32 %70, 17
  br i1 %71, label %72, label %89

72:                                               ; preds = %63
  %73 = load ptr, ptr %7, align 8, !tbaa !12
  %74 = getelementptr inbounds i64, ptr %73, i64 17
  %75 = load i64, ptr %74, align 8, !tbaa !8
  %76 = xor i64 %75, -1
  %77 = load ptr, ptr %7, align 8, !tbaa !12
  %78 = getelementptr inbounds i64, ptr %77, i64 17
  store i64 %76, ptr %78, align 8, !tbaa !8
  %79 = load i32, ptr %8, align 4, !tbaa !10
  %80 = icmp ugt i32 %79, 20
  br i1 %80, label %81, label %88

81:                                               ; preds = %72
  %82 = load ptr, ptr %7, align 8, !tbaa !12
  %83 = getelementptr inbounds i64, ptr %82, i64 20
  %84 = load i64, ptr %83, align 8, !tbaa !8
  %85 = xor i64 %84, -1
  %86 = load ptr, ptr %7, align 8, !tbaa !12
  %87 = getelementptr inbounds i64, ptr %86, i64 20
  store i64 %85, ptr %87, align 8, !tbaa !8
  br label %88

88:                                               ; preds = %81, %72
  br label %89

89:                                               ; preds = %88, %63
  br label %90

90:                                               ; preds = %89, %54
  br label %91

91:                                               ; preds = %90, %45
  br label %92

92:                                               ; preds = %91, %36
  br label %93

93:                                               ; preds = %92, %33
  call void @llvm.lifetime.end.p0(i64 4, ptr %9) #4
  ret void
}

; Function Attrs: nounwind uwtable
define hidden void @KeccakP1600_ExtractAndAddBytes(ptr noundef %0, ptr noundef %1, ptr noundef %2, i32 noundef %3, i32 noundef %4) #0 {
  %6 = alloca ptr, align 8
  %7 = alloca ptr, align 8
  %8 = alloca ptr, align 8
  %9 = alloca i32, align 4
  %10 = alloca i32, align 4
  %11 = alloca i32, align 4
  %12 = alloca i32, align 4
  %13 = alloca i32, align 4
  %14 = alloca ptr, align 8
  %15 = alloca ptr, align 8
  %16 = alloca i32, align 4
  store ptr %0, ptr %6, align 8, !tbaa !4
  store ptr %1, ptr %7, align 8, !tbaa !12
  store ptr %2, ptr %8, align 8, !tbaa !12
  store i32 %3, ptr %9, align 4, !tbaa !10
  store i32 %4, ptr %10, align 4, !tbaa !10
  %17 = load i32, ptr %9, align 4, !tbaa !10
  %18 = icmp eq i32 %17, 0
  br i1 %18, label %19, label %42

19:                                               ; preds = %5
  %20 = load ptr, ptr %6, align 8, !tbaa !4
  %21 = load ptr, ptr %7, align 8, !tbaa !12
  %22 = load ptr, ptr %8, align 8, !tbaa !12
  %23 = load i32, ptr %10, align 4, !tbaa !10
  %24 = udiv i32 %23, 8
  call void @KeccakP1600_ExtractAndAddLanes(ptr noundef %20, ptr noundef %21, ptr noundef %22, i32 noundef %24)
  %25 = load ptr, ptr %6, align 8, !tbaa !4
  %26 = load i32, ptr %10, align 4, !tbaa !10
  %27 = udiv i32 %26, 8
  %28 = load ptr, ptr %7, align 8, !tbaa !12
  %29 = load i32, ptr %10, align 4, !tbaa !10
  %30 = udiv i32 %29, 8
  %31 = mul i32 %30, 8
  %32 = zext i32 %31 to i64
  %33 = getelementptr inbounds nuw i8, ptr %28, i64 %32
  %34 = load ptr, ptr %8, align 8, !tbaa !12
  %35 = load i32, ptr %10, align 4, !tbaa !10
  %36 = udiv i32 %35, 8
  %37 = mul i32 %36, 8
  %38 = zext i32 %37 to i64
  %39 = getelementptr inbounds nuw i8, ptr %34, i64 %38
  %40 = load i32, ptr %10, align 4, !tbaa !10
  %41 = urem i32 %40, 8
  call void @KeccakP1600_ExtractAndAddBytesInLane(ptr noundef %25, i32 noundef %27, ptr noundef %33, ptr noundef %39, i32 noundef 0, i32 noundef %41)
  br label %82

42:                                               ; preds = %5
  call void @llvm.lifetime.start.p0(i64 4, ptr %11) #4
  %43 = load i32, ptr %10, align 4, !tbaa !10
  store i32 %43, ptr %11, align 4, !tbaa !10
  call void @llvm.lifetime.start.p0(i64 4, ptr %12) #4
  %44 = load i32, ptr %9, align 4, !tbaa !10
  %45 = udiv i32 %44, 8
  store i32 %45, ptr %12, align 4, !tbaa !10
  call void @llvm.lifetime.start.p0(i64 4, ptr %13) #4
  %46 = load i32, ptr %9, align 4, !tbaa !10
  %47 = urem i32 %46, 8
  store i32 %47, ptr %13, align 4, !tbaa !10
  call void @llvm.lifetime.start.p0(i64 8, ptr %14) #4
  %48 = load ptr, ptr %7, align 8, !tbaa !12
  store ptr %48, ptr %14, align 8, !tbaa !12
  call void @llvm.lifetime.start.p0(i64 8, ptr %15) #4
  %49 = load ptr, ptr %8, align 8, !tbaa !12
  store ptr %49, ptr %15, align 8, !tbaa !12
  br label %50

50:                                               ; preds = %61, %42
  %51 = load i32, ptr %11, align 4, !tbaa !10
  %52 = icmp ugt i32 %51, 0
  br i1 %52, label %53, label %81

53:                                               ; preds = %50
  call void @llvm.lifetime.start.p0(i64 4, ptr %16) #4
  %54 = load i32, ptr %13, align 4, !tbaa !10
  %55 = sub i32 8, %54
  store i32 %55, ptr %16, align 4, !tbaa !10
  %56 = load i32, ptr %16, align 4, !tbaa !10
  %57 = load i32, ptr %11, align 4, !tbaa !10
  %58 = icmp ugt i32 %56, %57
  br i1 %58, label %59, label %61

59:                                               ; preds = %53
  %60 = load i32, ptr %11, align 4, !tbaa !10
  store i32 %60, ptr %16, align 4, !tbaa !10
  br label %61

61:                                               ; preds = %59, %53
  %62 = load ptr, ptr %6, align 8, !tbaa !4
  %63 = load i32, ptr %12, align 4, !tbaa !10
  %64 = load ptr, ptr %14, align 8, !tbaa !12
  %65 = load ptr, ptr %15, align 8, !tbaa !12
  %66 = load i32, ptr %13, align 4, !tbaa !10
  %67 = load i32, ptr %16, align 4, !tbaa !10
  call void @KeccakP1600_ExtractAndAddBytesInLane(ptr noundef %62, i32 noundef %63, ptr noundef %64, ptr noundef %65, i32 noundef %66, i32 noundef %67)
  %68 = load i32, ptr %16, align 4, !tbaa !10
  %69 = load i32, ptr %11, align 4, !tbaa !10
  %70 = sub i32 %69, %68
  store i32 %70, ptr %11, align 4, !tbaa !10
  %71 = load i32, ptr %12, align 4, !tbaa !10
  %72 = add i32 %71, 1
  store i32 %72, ptr %12, align 4, !tbaa !10
  store i32 0, ptr %13, align 4, !tbaa !10
  %73 = load i32, ptr %16, align 4, !tbaa !10
  %74 = load ptr, ptr %14, align 8, !tbaa !12
  %75 = zext i32 %73 to i64
  %76 = getelementptr inbounds nuw i8, ptr %74, i64 %75
  store ptr %76, ptr %14, align 8, !tbaa !12
  %77 = load i32, ptr %16, align 4, !tbaa !10
  %78 = load ptr, ptr %15, align 8, !tbaa !12
  %79 = zext i32 %77 to i64
  %80 = getelementptr inbounds nuw i8, ptr %78, i64 %79
  store ptr %80, ptr %15, align 8, !tbaa !12
  call void @llvm.lifetime.end.p0(i64 4, ptr %16) #4
  br label %50

81:                                               ; preds = %50
  call void @llvm.lifetime.end.p0(i64 8, ptr %15) #4
  call void @llvm.lifetime.end.p0(i64 8, ptr %14) #4
  call void @llvm.lifetime.end.p0(i64 4, ptr %13) #4
  call void @llvm.lifetime.end.p0(i64 4, ptr %12) #4
  call void @llvm.lifetime.end.p0(i64 4, ptr %11) #4
  br label %82

82:                                               ; preds = %81, %19
  ret void
}